; Function Attrs: mustprogress uwtable
define hidden noundef ptr @_ZN6Assimp16CIOSystemWrapper4OpenEPKcS2_(ptr noundef nonnull align 8 dereferenceable(40) %this, ptr noundef %pFile, ptr noundef %pMode) unnamed_addr #4 align 2 personality ptr @__gxx_personality_v0 {
entry:
  %mFileSystem = getelementptr inbounds i8, ptr %this, i64 32
  %0 = load ptr, ptr %mFileSystem, align 8
  %1 = load ptr, ptr %0, align 8
  %call = tail call noundef ptr %1(ptr noundef nonnull %0, ptr noundef %pFile, ptr noundef %pMode)
  %tobool.not = icmp eq ptr %call, null
  br i1 %tobool.not, label %return, label %if.end

if.end:                                           ; preds = %entry
  %call3 = tail call noundef ptr @_ZN6Assimp6Intern22AllocateFromAssimpHeapnwEm(i64 noundef 24)
  store ptr getelementptr inbounds ({ [10 x ptr] }, ptr @_ZTVN6Assimp16CIOStreamWrapperE, i64 0, i32 0, i64 2), ptr %call3, align 8
  %mFile.i = getelementptr inbounds i8, ptr %call3, i64 8
  store ptr %call, ptr %mFile.i, align 8
  %mIO.i = getelementptr inbounds i8, ptr %call3, i64 16
  store ptr %this, ptr %mIO.i, align 8
  br label %return

return:                                           ; preds = %entry, %if.end
  %retval.0 = phi ptr [ %call3, %if.end ], [ null, %entry ]
  ret ptr %retval.0
}